; Function Attrs: mustprogress uwtable
define hidden void @_ZN3nla6basics20add_fixed_zero_lemmaERKNS_5monicEj(ptr nocapture noundef nonnull readonly align 8 dereferenceable(184) %this, ptr nocapture noundef nonnull readonly align 8 dereferenceable(34) %m, i32 noundef %j) local_unnamed_addr #3 align 2 personality ptr @__gxx_personality_v0 {
entry:
  %lemma = alloca %"class.nla::new_lemma", align 8
  %ref.tmp = alloca %"class.nla::ineq", align 8
  %0 = load ptr, ptr %this, align 8
  call void @_ZN3nla9new_lemmaC1ERNS_4coreEPKc(ptr noundef nonnull align 8 dereferenceable(16) %lemma, ptr noundef nonnull align 8 dereferenceable(4720) %0, ptr noundef nonnull @.str.6)
  %call2 = invoke noundef nonnull align 8 dereferenceable(16) ptr @_ZN3nla9new_lemma13explain_fixedEj(ptr noundef nonnull align 8 dereferenceable(16) %lemma, i32 noundef %j)
          to label %invoke.cont unwind label %lpad

invoke.cont:                                      ; preds = %entry
  %1 = load i32, ptr %m, align 8
  invoke void @_ZN3nla4ineqC2EjN2lp16lconstraint_kindEi(ptr noundef nonnull align 8 dereferenceable(64) %ref.tmp, i32 noundef %1, i32 noundef 0, i32 noundef 0)
          to label %invoke.cont5 unwind label %lpad

invoke.cont5:                                     ; preds = %invoke.cont
  %call8 = invoke noundef nonnull align 8 dereferenceable(16) ptr @_ZN3nla9new_lemmaoRERKNS_4ineqE(ptr noundef nonnull align 8 dereferenceable(16) %lemma, ptr noundef nonnull align 8 dereferenceable(64) %ref.tmp)
          to label %invoke.cont7 unwind label %lpad6

invoke.cont7:                                     ; preds = %invoke.cont5
  call void @_ZN3nla4ineqD2Ev(ptr noundef nonnull align 8 dereferenceable(64) %ref.tmp) #17
  call void @_ZN3nla9new_lemmaD1Ev(ptr noundef nonnull align 8 dereferenceable(16) %lemma) #17
  ret void

lpad:                                             ; preds = %invoke.cont, %entry
  %2 = landingpad { ptr, i32 }
          cleanup
  br label %ehcleanup

lpad6:                                            ; preds = %invoke.cont5
  %3 = landingpad { ptr, i32 }
          cleanup
  call void @_ZN3nla4ineqD2Ev(ptr noundef nonnull align 8 dereferenceable(64) %ref.tmp) #17
  br label %ehcleanup

ehcleanup:                                        ; preds = %lpad6, %lpad
  %.pn = phi { ptr, i32 } [ %3, %lpad6 ], [ %2, %lpad ]
  call void @_ZN3nla9new_lemmaD1Ev(ptr noundef nonnull align 8 dereferenceable(16) %lemma) #17
  resume { ptr, i32 } %.pn
}